; ModuleID = '54/1120.c'
source_filename = "54/1120.c"
target datalayout = "e-m:e-p270:32:32-p271:32:32-p272:64:64-i64:64-f80:128-n8:16:32:64-S128"
target triple = "x86_64-pc-linux-gnu"

@.str = private unnamed_addr constant [6 x i8] c"%d %d\00", align 1
@.str.1 = private unnamed_addr constant [4 x i8] c"%d\0A\00", align 1

; Function Attrs: noinline nounwind uwtable
define dso_local i32 @minnum(i32 %0, i32 %1) #0 {
  %3 = alloca i32, align 4
  %4 = alloca i32, align 4
  %5 = alloca i32, align 4
  %6 = alloca double, align 8
  %7 = alloca i32, align 4
  store i32 %0, i32* %3, align 4
  store i32 %1, i32* %4, align 4
  store i32 1, i32* %5, align 4
  br label %8

8:                                                ; preds = %2, %49
  store i32 1, i32* %7, align 4
  %9 = load i32, i32* %5, align 4
  %10 = load i32, i32* %3, align 4
  %11 = mul nsw i32 %9, %10
  %12 = load i32, i32* %4, align 4
  %13 = add nsw i32 %11, %12
  %14 = sitofp i32 %13 to double
  store double %14, double* %6, align 8
  br label %15

15:                                               ; preds = %39, %8
  %16 = load i32, i32* %7, align 4
  %17 = load i32, i32* %3, align 4
  %18 = icmp slt i32 %16, %17
  br i1 %18, label %19, label %40

19:                                               ; preds = %15
  %20 = load double, double* %6, align 8
  %21 = load i32, i32* %3, align 4
  %22 = sitofp i32 %21 to double
  %23 = fmul double %20, %22
  %24 = load i32, i32* %3, align 4
  %25 = sub nsw i32 %24, 1
  %26 = sitofp i32 %25 to double
  %27 = fdiv double %23, %26
  %28 = load i32, i32* %4, align 4
  %29 = sitofp i32 %28 to double
  %30 = fadd double %27, %29
  store double %30, double* %6, align 8
  %31 = load i32, i32* %7, align 4
  %32 = add nsw i32 %31, 1
  store i32 %32, i32* %7, align 4
  %33 = load double, double* %6, align 8
  %34 = fptosi double %33 to i32
  %35 = sitofp i32 %34 to double
  %36 = load double, double* %6, align 8
  %37 = fcmp une double %35, %36
  br i1 %37, label %38, label %39

38:                                               ; preds = %19
  br label %40

39:                                               ; preds = %19
  br label %15

40:                                               ; preds = %38, %15
  %41 = load i32, i32* %5, align 4
  %42 = add nsw i32 %41, 1
  store i32 %42, i32* %5, align 4
  %43 = load double, double* %6, align 8
  %44 = fptosi double %43 to i64
  %45 = sitofp i64 %44 to double
  %46 = load double, double* %6, align 8
  %47 = fcmp oeq double %45, %46
  br i1 %47, label %48, label %49

48:                                               ; preds = %40
  br label %50

49:                                               ; preds = %40
  br label %8

50:                                               ; preds = %48
  %51 = load double, double* %6, align 8
  %52 = fptosi double %51 to i32
  ret i32 %52
}

; Function Attrs: noinline nounwind uwtable
define dso_local i32 @main() #0 {
  %1 = alloca i32, align 4
  %2 = alloca i32, align 4
  %3 = alloca i32, align 4
  %4 = alloca i32, align 4
  store i32 0, i32* %1, align 4
  %5 = call i32 (i8*, ...) @__isoc99_scanf(i8* getelementptr inbounds ([6 x i8], [6 x i8]* @.str, i64 0, i64 0), i32* %2, i32* %3)
  %6 = load i32, i32* %2, align 4
  %7 = load i32, i32* %3, align 4
  %8 = call i32 @minnum(i32 %6, i32 %7)
  store i32 %8, i32* %4, align 4
  %9 = load i32, i32* %4, align 4
  %10 = call i32 (i8*, ...) @printf(i8* getelementptr inbounds ([4 x i8], [4 x i8]* @.str.1, i64 0, i64 0), i32 %9)
  ret i32 0
}

declare dso_local i32 @__isoc99_scanf(i8*, ...) #1

declare dso_local i32 @printf(i8*, ...) #1


!llvm.module.flags = !{!0}
!llvm.ident = !{!1}

!0 = !{i32 1, !"wchar_size", i32 4}
!1 = !{!"clang version 10.0.0-4ubuntu1 "}
